target datalayout = "e-m:e-p270:32:32-p271:32:32-p272:64:64-i64:64-i128:128-f80:128-n8:16:32:64-S128"
target triple = "x86_64-pc-linux-gnu"

%struct.H5O_ainfo_t = type { i8, i8, i32, i64, i64, i64, i64 }

@H5O_init_g = external global i8, align 1
@H5_libterm_g = external global i8, align 1

; Function Attrs: nounwind uwtable
define internal i32 @H5O__ainfo_encode(ptr noundef %0, i1 noundef zeroext %1, i64 noundef %2, ptr noundef %3, ptr noundef %4) #0 {
  %6 = alloca ptr, align 8
  %7 = alloca i8, align 1
  %8 = alloca i64, align 8
  %9 = alloca ptr, align 8
  %10 = alloca ptr, align 8
  %11 = alloca ptr, align 8
  %12 = alloca i8, align 1
  store ptr %0, ptr %6, align 8, !tbaa !3
  %13 = zext i1 %1 to i8
  store i8 %13, ptr %7, align 1, !tbaa !21
  store i64 %2, ptr %8, align 8, !tbaa !14
  store ptr %3, ptr %9, align 8, !tbaa !16
  store ptr %4, ptr %10, align 8, !tbaa !20
  call void @llvm.lifetime.start.p0(i64 8, ptr %11) #6
  %14 = load ptr, ptr %10, align 8, !tbaa !20
  store ptr %14, ptr %11, align 8, !tbaa !18
  call void @llvm.lifetime.start.p0(i64 1, ptr %12) #6
  %15 = load i8, ptr @H5O_init_g, align 1, !tbaa !21, !range !23, !noundef !24
  %16 = trunc i8 %15 to i1
  br i1 %16, label %21, label %17

17:                                               ; preds = %5
  %18 = load i8, ptr @H5_libterm_g, align 1, !tbaa !21, !range !23, !noundef !24
  %19 = trunc i8 %18 to i1
  %20 = xor i1 %19, true
  br label %21

21:                                               ; preds = %17, %5
  %22 = phi i1 [ true, %5 ], [ %20, %17 ]
  %23 = xor i1 %22, true
  %24 = xor i1 %23, true
  %25 = zext i1 %24 to i32
  %26 = sext i32 %25 to i64
  %27 = call i64 @llvm.expect.i64(i64 %26, i64 1)
  %28 = icmp ne i64 %27, 0
  br i1 %28, label %29, label %95

29:                                               ; preds = %21
  %30 = load ptr, ptr %9, align 8, !tbaa !16
  %31 = getelementptr inbounds nuw i8, ptr %30, i32 1
  store ptr %31, ptr %9, align 8, !tbaa !16
  store i8 0, ptr %30, align 1, !tbaa !25
  %32 = load ptr, ptr %11, align 8, !tbaa !18
  %33 = getelementptr inbounds nuw %struct.H5O_ainfo_t, ptr %32, i32 0, i32 0
  %34 = load i8, ptr %33, align 8, !tbaa !26, !range !23, !noundef !24
  %35 = trunc i8 %34 to i1
  %36 = select i1 %35, i32 1, i32 0
  %37 = trunc i32 %36 to i8
  store i8 %37, ptr %12, align 1, !tbaa !25
  %38 = load i8, ptr %12, align 1, !tbaa !25
  %39 = zext i8 %38 to i32
  %40 = load ptr, ptr %11, align 8, !tbaa !18
  %41 = getelementptr inbounds nuw %struct.H5O_ainfo_t, ptr %40, i32 0, i32 1
  %42 = load i8, ptr %41, align 1, !tbaa !28, !range !23, !noundef !24
  %43 = trunc i8 %42 to i1
  %44 = select i1 %43, i32 2, i32 0
  %45 = or i32 %39, %44
  %46 = trunc i32 %45 to i8
  store i8 %46, ptr %12, align 1, !tbaa !25
  %47 = load i8, ptr %12, align 1, !tbaa !25
  %48 = load ptr, ptr %9, align 8, !tbaa !16
  %49 = getelementptr inbounds nuw i8, ptr %48, i32 1
  store ptr %49, ptr %9, align 8, !tbaa !16
  store i8 %47, ptr %48, align 1, !tbaa !25
  %50 = load ptr, ptr %11, align 8, !tbaa !18
  %51 = getelementptr inbounds nuw %struct.H5O_ainfo_t, ptr %50, i32 0, i32 0
  %52 = load i8, ptr %51, align 8, !tbaa !26, !range !23, !noundef !24
  %53 = trunc i8 %52 to i1
  br i1 %53, label %54, label %75

54:                                               ; preds = %29
  br label %55

55:                                               ; preds = %54
  %56 = load ptr, ptr %11, align 8, !tbaa !18
  %57 = getelementptr inbounds nuw %struct.H5O_ainfo_t, ptr %56, i32 0, i32 2
  %58 = load i32, ptr %57, align 4, !tbaa !30
  %59 = and i32 %58, 255
  %60 = trunc i32 %59 to i8
  %61 = load ptr, ptr %9, align 8, !tbaa !16
  store i8 %60, ptr %61, align 1, !tbaa !25
  %62 = load ptr, ptr %9, align 8, !tbaa !16
  %63 = getelementptr inbounds nuw i8, ptr %62, i32 1
  store ptr %63, ptr %9, align 8, !tbaa !16
  %64 = load ptr, ptr %11, align 8, !tbaa !18
  %65 = getelementptr inbounds nuw %struct.H5O_ainfo_t, ptr %64, i32 0, i32 2
  %66 = load i32, ptr %65, align 4, !tbaa !30
  %67 = lshr i32 %66, 8
  %68 = and i32 %67, 255
  %69 = trunc i32 %68 to i8
  %70 = load ptr, ptr %9, align 8, !tbaa !16
  store i8 %69, ptr %70, align 1, !tbaa !25
  %71 = load ptr, ptr %9, align 8, !tbaa !16
  %72 = getelementptr inbounds nuw i8, ptr %71, i32 1
  store ptr %72, ptr %9, align 8, !tbaa !16
  br label %73

73:                                               ; preds = %55
  br label %74

74:                                               ; preds = %73
  br label %75

75:                                               ; preds = %74, %29
  %76 = load ptr, ptr %6, align 8, !tbaa !3
  %77 = load ptr, ptr %11, align 8, !tbaa !18
  %78 = getelementptr inbounds nuw %struct.H5O_ainfo_t, ptr %77, i32 0, i32 5
  %79 = load i64, ptr %78, align 8, !tbaa !32
  call void @H5F_addr_encode(ptr noundef %76, ptr noundef %9, i64 noundef %79)
  %80 = load ptr, ptr %6, align 8, !tbaa !3
  %81 = load ptr, ptr %11, align 8, !tbaa !18
  %82 = getelementptr inbounds nuw %struct.H5O_ainfo_t, ptr %81, i32 0, i32 6
  %83 = load i64, ptr %82, align 8, !tbaa !33
  call void @H5F_addr_encode(ptr noundef %80, ptr noundef %9, i64 noundef %83)
  %84 = load ptr, ptr %11, align 8, !tbaa !18
  %85 = getelementptr inbounds nuw %struct.H5O_ainfo_t, ptr %84, i32 0, i32 1
  %86 = load i8, ptr %85, align 1, !tbaa !28, !range !23, !noundef !24
  %87 = trunc i8 %86 to i1
  br i1 %87, label %88, label %93

88:                                               ; preds = %75
  %89 = load ptr, ptr %6, align 8, !tbaa !3
  %90 = load ptr, ptr %11, align 8, !tbaa !18
  %91 = getelementptr inbounds nuw %struct.H5O_ainfo_t, ptr %90, i32 0, i32 3
  %92 = load i64, ptr %91, align 8, !tbaa !31
  call void @H5F_addr_encode(ptr noundef %89, ptr noundef %9, i64 noundef %92)
  br label %94

93:                                               ; preds = %75
  br label %94

94:                                               ; preds = %93, %88
  br label %95

95:                                               ; preds = %94, %21
  call void @llvm.lifetime.end.p0(i64 1, ptr %12) #6
  call void @llvm.lifetime.end.p0(i64 8, ptr %11) #6
  ret i32 0
}