; Function Attrs: nounwind uwtable
define internal noundef i32 @H5O__ainfo_encode(ptr noundef %0, i1 zeroext %1, i64 %2, ptr noundef %3, ptr noundef readonly captures(none) %4) #0 {
  %6 = alloca ptr, align 8
  %7 = load i8, ptr @H5O_init_g, align 1, !tbaa !3, !range !7, !noundef !8
  %8 = trunc nuw i8 %7 to i1
  %9 = load i8, ptr @H5_libterm_g, align 1, !range !7
  %10 = trunc nuw i8 %9 to i1
  %11 = xor i1 %10, true
  %12 = select i1 %8, i1 true, i1 %11
  br i1 %12, label %13, label %43, !prof !9

13:                                               ; preds = %5
  %14 = getelementptr inbounds nuw i8, ptr %3, i64 1
  store i8 0, ptr %3, align 1, !tbaa !15
  %15 = load i8, ptr %4, align 8, !tbaa !16, !range !7, !noundef !8
  %16 = getelementptr inbounds nuw i8, ptr %4, i64 1
  %17 = load i8, ptr %16, align 1, !tbaa !19, !range !7, !noundef !8
  %18 = trunc nuw i8 %17 to i1
  %19 = select i1 %18, i8 2, i8 0
  %20 = or disjoint i8 %19, %15
  %21 = getelementptr inbounds nuw i8, ptr %3, i64 2
  store ptr %21, ptr %6, align 8, !tbaa !12
  store i8 %20, ptr %14, align 1, !tbaa !15
  %22 = load i8, ptr %4, align 8, !tbaa !16, !range !7, !noundef !8
  %23 = trunc nuw i8 %22 to i1
  br i1 %23, label %24, label %33

24:                                               ; preds = %13
  %25 = getelementptr inbounds nuw i8, ptr %4, i64 4
  %26 = load i32, ptr %25, align 4, !tbaa !21
  %27 = trunc i32 %26 to i8
  store i8 %27, ptr %21, align 1, !tbaa !15
  %28 = getelementptr inbounds nuw i8, ptr %3, i64 3
  %29 = load i32, ptr %25, align 4, !tbaa !21
  %30 = lshr i32 %29, 8
  %31 = trunc i32 %30 to i8
  store i8 %31, ptr %28, align 1, !tbaa !15
  %32 = getelementptr inbounds nuw i8, ptr %3, i64 4
  store ptr %32, ptr %6, align 8, !tbaa !12
  br label %33

33:                                               ; preds = %24, %13
  %34 = getelementptr inbounds nuw i8, ptr %4, i64 24
  %35 = load i64, ptr %34, align 8, !tbaa !23
  call void @H5F_addr_encode(ptr noundef %0, ptr noundef nonnull %6, i64 noundef %35) #7
  %36 = getelementptr inbounds nuw i8, ptr %4, i64 32
  %37 = load i64, ptr %36, align 8, !tbaa !24
  call void @H5F_addr_encode(ptr noundef %0, ptr noundef nonnull %6, i64 noundef %37) #7
  %38 = load i8, ptr %16, align 1, !tbaa !19, !range !7, !noundef !8
  %39 = trunc nuw i8 %38 to i1
  br i1 %39, label %40, label %43

40:                                               ; preds = %33
  %41 = getelementptr inbounds nuw i8, ptr %4, i64 8
  %42 = load i64, ptr %41, align 8, !tbaa !22
  call void @H5F_addr_encode(ptr noundef %0, ptr noundef nonnull %6, i64 noundef %42) #7
  br label %43

43:                                               ; preds = %40, %33, %5
  ret i32 0
}